target datalayout = "e-m:e-p270:32:32-p271:32:32-p272:64:64-i64:64-i128:128-f80:128-n8:16:32:64-S128"
target triple = "x86_64-unknown-linux-gnu"

%class.aiVector3t = type { float, float, float }
%struct.aiVectorKey = type <{ double, %class.aiVector3t, [4 x i8] }>

; Function Attrs: mustprogress nounwind uwtable
define linkonce_odr noundef float @_ZSt4fabsf(float noundef %__x) #0 comdat {
entry:
  %__x.addr = alloca float, align 4
  store float %__x, ptr %__x.addr, align 4
  %0 = load float, ptr %__x.addr, align 4
  %1 = call float @llvm.fabs.f32(float %0)
  ret float %1
}

; Function Attrs: mustprogress uwtable
define linkonce_odr hidden noundef zeroext i1 @_Z14EpsilonComparefff(float noundef %n, float noundef %s, float noundef %epsilon) #3 comdat {
entry:
  %n.addr = alloca float, align 4
  %s.addr = alloca float, align 4
  %epsilon.addr = alloca float, align 4
  store float %n, ptr %n.addr, align 4
  store float %s, ptr %s.addr, align 4
  store float %epsilon, ptr %epsilon.addr, align 4
  %0 = load float, ptr %n.addr, align 4
  %1 = load float, ptr %s.addr, align 4
  %sub = fsub float %0, %1
  %call = call noundef float @_ZSt4fabsf(float noundef %sub)
  %2 = load float, ptr %epsilon.addr, align 4
  %cmp = fcmp ogt float %call, %2
  ret i1 %cmp
}

; Function Attrs: mustprogress uwtable
define hidden noundef zeroext i1 @_Z14EpsilonCompareI11aiVectorKeyEbRKT_S3_f(ptr noundef nonnull align 8 dereferenceable(20) %n, ptr noundef nonnull align 8 dereferenceable(20) %s, float noundef %epsilon) #3 {
entry:
  %n.addr = alloca ptr, align 8
  %s.addr = alloca ptr, align 8
  %epsilon.addr = alloca float, align 4
  store ptr %n, ptr %n.addr, align 8
  store ptr %s, ptr %s.addr, align 8
  store float %epsilon, ptr %epsilon.addr, align 4
  %0 = load ptr, ptr %n.addr, align 8
  %mValue = getelementptr inbounds %struct.aiVectorKey, ptr %0, i32 0, i32 1
  %x = getelementptr inbounds %class.aiVector3t, ptr %mValue, i32 0, i32 0
  %1 = load float, ptr %x, align 8
  %2 = load ptr, ptr %s.addr, align 8
  %mValue1 = getelementptr inbounds %struct.aiVectorKey, ptr %2, i32 0, i32 1
  %x2 = getelementptr inbounds %class.aiVector3t, ptr %mValue1, i32 0, i32 0
  %3 = load float, ptr %x2, align 8
  %4 = load float, ptr %epsilon.addr, align 4
  %call = call noundef zeroext i1 @_Z14EpsilonComparefff(float noundef %1, float noundef %3, float noundef %4)
  br i1 %call, label %land.lhs.true, label %land.end

land.lhs.true:                                    ; preds = %entry
  %5 = load ptr, ptr %n.addr, align 8
  %mValue3 = getelementptr inbounds %struct.aiVectorKey, ptr %5, i32 0, i32 1
  %y = getelementptr inbounds %class.aiVector3t, ptr %mValue3, i32 0, i32 1
  %6 = load float, ptr %y, align 4
  %7 = load ptr, ptr %s.addr, align 8
  %mValue4 = getelementptr inbounds %struct.aiVectorKey, ptr %7, i32 0, i32 1
  %y5 = getelementptr inbounds %class.aiVector3t, ptr %mValue4, i32 0, i32 1
  %8 = load float, ptr %y5, align 4
  %9 = load float, ptr %epsilon.addr, align 4
  %call6 = call noundef zeroext i1 @_Z14EpsilonComparefff(float noundef %6, float noundef %8, float noundef %9)
  br i1 %call6, label %land.rhs, label %land.end

land.rhs:                                         ; preds = %land.lhs.true
  %10 = load ptr, ptr %n.addr, align 8
  %mValue7 = getelementptr inbounds %struct.aiVectorKey, ptr %10, i32 0, i32 1
  %z = getelementptr inbounds %class.aiVector3t, ptr %mValue7, i32 0, i32 2
  %11 = load float, ptr %z, align 8
  %12 = load ptr, ptr %s.addr, align 8
  %mValue8 = getelementptr inbounds %struct.aiVectorKey, ptr %12, i32 0, i32 1
  %z9 = getelementptr inbounds %class.aiVector3t, ptr %mValue8, i32 0, i32 2
  %13 = load float, ptr %z9, align 8
  %14 = load float, ptr %epsilon.addr, align 4
  %call10 = call noundef zeroext i1 @_Z14EpsilonComparefff(float noundef %11, float noundef %13, float noundef %14)
  br label %land.end

land.end:                                         ; preds = %land.rhs, %land.lhs.true, %entry
  %15 = phi i1 [ false, %land.lhs.true ], [ false, %entry ], [ %call10, %land.rhs ]
  ret i1 %15
}