; Function Attrs: mustprogress nofree norecurse nosync nounwind willreturn memory(argmem: read) uwtable
define hidden noundef zeroext i1 @_Z14EpsilonCompareI11aiVectorKeyEbRKT_S3_f(ptr nocapture noundef nonnull readonly align 8 dereferenceable(20) %n, ptr nocapture noundef nonnull readonly align 8 dereferenceable(20) %s, float noundef %epsilon) local_unnamed_addr #8 {
entry:
  %mValue = getelementptr inbounds i8, ptr %n, i64 8
  %0 = load float, ptr %mValue, align 8
  %mValue1 = getelementptr inbounds i8, ptr %s, i64 8
  %1 = load float, ptr %mValue1, align 8
  %sub.i = fsub float %0, %1
  %2 = tail call noundef float @llvm.fabs.f32(float %sub.i)
  %cmp.i = fcmp ogt float %2, %epsilon
  br i1 %cmp.i, label %land.lhs.true, label %land.end

land.lhs.true:                                    ; preds = %entry
  %y = getelementptr inbounds i8, ptr %n, i64 12
  %3 = load float, ptr %y, align 4
  %y5 = getelementptr inbounds i8, ptr %s, i64 12
  %4 = load float, ptr %y5, align 4
  %sub.i7 = fsub float %3, %4
  %5 = tail call noundef float @llvm.fabs.f32(float %sub.i7)
  %cmp.i8 = fcmp ogt float %5, %epsilon
  br i1 %cmp.i8, label %land.rhs, label %land.end

land.rhs:                                         ; preds = %land.lhs.true
  %z = getelementptr inbounds i8, ptr %n, i64 16
  %6 = load float, ptr %z, align 8
  %z9 = getelementptr inbounds i8, ptr %s, i64 16
  %7 = load float, ptr %z9, align 8
  %sub.i9 = fsub float %6, %7
  %8 = tail call noundef float @llvm.fabs.f32(float %sub.i9)
  %cmp.i10 = fcmp ogt float %8, %epsilon
  br label %land.end

land.end:                                         ; preds = %land.rhs, %land.lhs.true, %entry
  %9 = phi i1 [ false, %land.lhs.true ], [ false, %entry ], [ %cmp.i10, %land.rhs ]
  ret i1 %9
}